; Function Attrs: mustprogress nounwind uwtable
define dso_local void @_ZN5clang13ASTDeclWriter25VisitObjCPropertyImplDeclEPNS_20ObjCPropertyImplDeclE(ptr noundef nonnull align 8 dereferenceable(241) %0, ptr noundef nonnull %1) local_unnamed_addr #0 align 2 {
  tail call void @_ZN5clang13ASTDeclWriter9VisitDeclEPNS_4DeclE(ptr noundef nonnull align 8 dereferenceable(241) %0, ptr noundef %1)
  %3 = getelementptr inbounds nuw i8, ptr %1, i64 36
  %.sroa.0.0.copyload.i = load i32, ptr %3, align 4
  %4 = getelementptr inbounds nuw i8, ptr %0, i64 24
  %5 = load ptr, ptr %4, align 8
  %6 = getelementptr inbounds nuw i8, ptr %0, i64 32
  %7 = load ptr, ptr %6, align 8
  tail call void @_ZN5clang9ASTWriter17AddSourceLocationENS_14SourceLocationERN4llvm15SmallVectorImplImEEPNS_22SourceLocationSequenceE(ptr noundef nonnull align 8 dereferenceable(3340) %5, i32 %.sroa.0.0.copyload.i, ptr noundef nonnull align 8 dereferenceable(16) %7, ptr noundef null) #19
  %8 = getelementptr inbounds nuw i8, ptr %1, i64 48
  %9 = load ptr, ptr %8, align 8
  %10 = load ptr, ptr %4, align 8
  %11 = load ptr, ptr %6, align 8
  tail call void @_ZN5clang9ASTWriter10AddDeclRefEPKNS_4DeclERN4llvm15SmallVectorImplImEE(ptr noundef nonnull align 8 dereferenceable(3340) %10, ptr noundef %9, ptr noundef nonnull align 8 dereferenceable(16) %11) #19
  %12 = getelementptr inbounds nuw i8, ptr %1, i64 56
  %13 = load ptr, ptr %12, align 8
  %14 = load ptr, ptr %4, align 8
  %15 = load ptr, ptr %6, align 8
  tail call void @_ZN5clang9ASTWriter10AddDeclRefEPKNS_4DeclERN4llvm15SmallVectorImplImEE(ptr noundef nonnull align 8 dereferenceable(3340) %14, ptr noundef %13, ptr noundef nonnull align 8 dereferenceable(16) %15) #19
  %16 = getelementptr inbounds nuw i8, ptr %1, i64 40
  %.sroa.0.0.copyload.i11 = load i32, ptr %16, align 8
  %17 = load ptr, ptr %4, align 8
  %18 = load ptr, ptr %6, align 8
  tail call void @_ZN5clang9ASTWriter17AddSourceLocationENS_14SourceLocationERN4llvm15SmallVectorImplImEEPNS_22SourceLocationSequenceE(ptr noundef nonnull align 8 dereferenceable(3340) %17, i32 %.sroa.0.0.copyload.i11, ptr noundef nonnull align 8 dereferenceable(16) %18, ptr noundef null) #19
  %19 = getelementptr inbounds nuw i8, ptr %1, i64 64
  %20 = load ptr, ptr %19, align 8
  %21 = load ptr, ptr %4, align 8
  %22 = load ptr, ptr %6, align 8
  tail call void @_ZN5clang9ASTWriter10AddDeclRefEPKNS_4DeclERN4llvm15SmallVectorImplImEE(ptr noundef nonnull align 8 dereferenceable(3340) %21, ptr noundef %20, ptr noundef nonnull align 8 dereferenceable(16) %22) #19
  %23 = getelementptr inbounds nuw i8, ptr %1, i64 72
  %24 = load ptr, ptr %23, align 8
  %25 = load ptr, ptr %4, align 8
  %26 = load ptr, ptr %6, align 8
  tail call void @_ZN5clang9ASTWriter10AddDeclRefEPKNS_4DeclERN4llvm15SmallVectorImplImEE(ptr noundef nonnull align 8 dereferenceable(3340) %25, ptr noundef %24, ptr noundef nonnull align 8 dereferenceable(16) %26) #19
  %27 = getelementptr inbounds nuw i8, ptr %1, i64 80
  %28 = load ptr, ptr %27, align 8
  %29 = getelementptr inbounds nuw i8, ptr %0, i64 40
  %30 = tail call noundef i64 @_ZNK4llvm15SmallVectorBaseIjE4sizeEv(ptr noundef nonnull align 8 dereferenceable(16) %29) #19
  %31 = add i64 %30, 1
  %32 = tail call noundef i64 @_ZNK4llvm15SmallVectorBaseIjE8capacityEv(ptr noundef nonnull align 8 dereferenceable(16) %29) #19
  %.not.i.i.i.i = icmp ugt i64 %31, %32
  br i1 %.not.i.i.i.i, label %33, label %_ZN5clang15ASTRecordWriter7AddStmtEPNS_4StmtE.exit

33:                                               ; preds = %2
  %34 = getelementptr inbounds nuw i8, ptr %0, i64 56
  tail call void @_ZN4llvm15SmallVectorBaseIjE8grow_podEPvmm(ptr noundef nonnull align 8 dereferenceable(16) %29, ptr noundef nonnull %34, i64 noundef %31, i64 noundef 8) #19
  br label %_ZN5clang15ASTRecordWriter7AddStmtEPNS_4StmtE.exit

_ZN5clang15ASTRecordWriter7AddStmtEPNS_4StmtE.exit: ; preds = %2, %33
  %35 = load ptr, ptr %29, align 8
  %36 = tail call noundef i64 @_ZNK4llvm15SmallVectorBaseIjE4sizeEv(ptr noundef nonnull align 8 dereferenceable(16) %29) #19
  %37 = getelementptr inbounds ptr, ptr %35, i64 %36
  %38 = ptrtoint ptr %28 to i64
  store i64 %38, ptr %37, align 1
  %39 = tail call noundef i64 @_ZNK4llvm15SmallVectorBaseIjE4sizeEv(ptr noundef nonnull align 8 dereferenceable(16) %29) #19
  %40 = add i64 %39, 1
  tail call void @_ZN4llvm15SmallVectorBaseIjE8set_sizeEm(ptr noundef nonnull align 8 dereferenceable(16) %29, i64 noundef %40) #19
  %41 = getelementptr inbounds nuw i8, ptr %1, i64 88
  %42 = load ptr, ptr %41, align 8
  %43 = tail call noundef i64 @_ZNK4llvm15SmallVectorBaseIjE4sizeEv(ptr noundef nonnull align 8 dereferenceable(16) %29) #19
  %44 = add i64 %43, 1
  %45 = tail call noundef i64 @_ZNK4llvm15SmallVectorBaseIjE8capacityEv(ptr noundef nonnull align 8 dereferenceable(16) %29) #19
  %.not.i.i.i.i12 = icmp ugt i64 %44, %45
  br i1 %.not.i.i.i.i12, label %46, label %_ZN5clang15ASTRecordWriter7AddStmtEPNS_4StmtE.exit13

46:                                               ; preds = %_ZN5clang15ASTRecordWriter7AddStmtEPNS_4StmtE.exit
  %47 = getelementptr inbounds nuw i8, ptr %0, i64 56
  tail call void @_ZN4llvm15SmallVectorBaseIjE8grow_podEPvmm(ptr noundef nonnull align 8 dereferenceable(16) %29, ptr noundef nonnull %47, i64 noundef %44, i64 noundef 8) #19
  br label %_ZN5clang15ASTRecordWriter7AddStmtEPNS_4StmtE.exit13

_ZN5clang15ASTRecordWriter7AddStmtEPNS_4StmtE.exit13: ; preds = %_ZN5clang15ASTRecordWriter7AddStmtEPNS_4StmtE.exit, %46
  %48 = load ptr, ptr %29, align 8
  %49 = tail call noundef i64 @_ZNK4llvm15SmallVectorBaseIjE4sizeEv(ptr noundef nonnull align 8 dereferenceable(16) %29) #19
  %50 = getelementptr inbounds ptr, ptr %48, i64 %49
  %51 = ptrtoint ptr %42 to i64
  store i64 %51, ptr %50, align 1
  %52 = tail call noundef i64 @_ZNK4llvm15SmallVectorBaseIjE4sizeEv(ptr noundef nonnull align 8 dereferenceable(16) %29) #19
  %53 = add i64 %52, 1
  tail call void @_ZN4llvm15SmallVectorBaseIjE8set_sizeEm(ptr noundef nonnull align 8 dereferenceable(16) %29, i64 noundef %53) #19
  %54 = getelementptr inbounds nuw i8, ptr %0, i64 232
  store i32 67, ptr %54, align 8
  ret void
}